; ModuleID = '7/910.c'
source_filename = "7/910.c"
target datalayout = "e-m:e-p270:32:32-p271:32:32-p272:64:64-i64:64-f80:128-n8:16:32:64-S128"
target triple = "x86_64-pc-linux-gnu"

@zfc = common dso_local global [3 x [257 x i8]] zeroinitializer, align 16
@.str = private unnamed_addr constant [3 x i8] c"%s\00", align 1

; Function Attrs: noinline nounwind uwtable
define dso_local i32 @main() #0 {
  %1 = alloca i32, align 4
  %2 = alloca i32, align 4
  %3 = alloca i32, align 4
  %4 = alloca i32, align 4
  %5 = alloca i32, align 4
  %6 = alloca i32, align 4
  store i32 0, i32* %1, align 4
  %7 = call i32 (i8*, ...) bitcast (i32 (...)* @gets to i32 (i8*, ...)*)(i8* getelementptr inbounds ([3 x [257 x i8]], [3 x [257 x i8]]* @zfc, i64 0, i64 1, i64 0))
  %8 = call i32 (i8*, ...) bitcast (i32 (...)* @gets to i32 (i8*, ...)*)(i8* getelementptr inbounds ([3 x [257 x i8]], [3 x [257 x i8]]* @zfc, i64 0, i64 2, i64 0))
  %9 = call i32 (i8*, ...) bitcast (i32 (...)* @gets to i32 (i8*, ...)*)(i8* getelementptr inbounds ([3 x [257 x i8]], [3 x [257 x i8]]* @zfc, i64 1, i64 0, i64 0))
  %10 = call i64 @strlen(i8* getelementptr inbounds ([3 x [257 x i8]], [3 x [257 x i8]]* @zfc, i64 0, i64 1, i64 0)) #3
  %11 = trunc i64 %10 to i32
  store i32 %11, i32* %4, align 4
  %12 = call i64 @strlen(i8* getelementptr inbounds ([3 x [257 x i8]], [3 x [257 x i8]]* @zfc, i64 0, i64 2, i64 0)) #3
  %13 = trunc i64 %12 to i32
  store i32 %13, i32* %5, align 4
  store i32 0, i32* %2, align 4
  br label %14

14:                                               ; preds = %39, %0
  %15 = load i32, i32* %2, align 4
  %16 = load i32, i32* %4, align 4
  %17 = icmp slt i32 %15, %16
  br i1 %17, label %18, label %42

18:                                               ; preds = %14
  %19 = load i32, i32* %2, align 4
  %20 = sext i32 %19 to i64
  %21 = getelementptr inbounds [257 x i8], [257 x i8]* getelementptr inbounds ([3 x [257 x i8]], [3 x [257 x i8]]* @zfc, i64 0, i64 1), i64 0, i64 %20
  %22 = load i8, i8* %21, align 1
  %23 = sext i8 %22 to i32
  %24 = load i8, i8* getelementptr inbounds ([3 x [257 x i8]], [3 x [257 x i8]]* @zfc, i64 0, i64 2, i64 0), align 2
  %25 = sext i8 %24 to i32
  %26 = icmp eq i32 %23, %25
  br i1 %26, label %27, label %38

27:                                               ; preds = %18
  %28 = load i32, i32* %2, align 4
  %29 = add nsw i32 %28, 1
  %30 = sext i32 %29 to i64
  %31 = getelementptr inbounds [257 x i8], [257 x i8]* getelementptr inbounds ([3 x [257 x i8]], [3 x [257 x i8]]* @zfc, i64 0, i64 1), i64 0, i64 %30
  %32 = load i8, i8* %31, align 1
  %33 = sext i8 %32 to i32
  %34 = load i8, i8* getelementptr inbounds ([3 x [257 x i8]], [3 x [257 x i8]]* @zfc, i64 0, i64 2, i64 1), align 1
  %35 = sext i8 %34 to i32
  %36 = icmp eq i32 %33, %35
  br i1 %36, label %37, label %38

37:                                               ; preds = %27
  br label %42

38:                                               ; preds = %27, %18
  br label %39

39:                                               ; preds = %38
  %40 = load i32, i32* %2, align 4
  %41 = add nsw i32 %40, 1
  store i32 %41, i32* %2, align 4
  br label %14

42:                                               ; preds = %37, %14
  %43 = load i32, i32* %2, align 4
  %44 = load i32, i32* %4, align 4
  %45 = icmp ne i32 %43, %44
  br i1 %45, label %46, label %76

46:                                               ; preds = %42
  %47 = load i32, i32* %2, align 4
  store i32 %47, i32* %3, align 4
  br label %48

48:                                               ; preds = %72, %46
  %49 = load i32, i32* %3, align 4
  %50 = load i32, i32* %5, align 4
  %51 = load i32, i32* %2, align 4
  %52 = add nsw i32 %50, %51
  %53 = icmp slt i32 %49, %52
  br i1 %53, label %54, label %75

54:                                               ; preds = %48
  %55 = load i32, i32* %3, align 4
  %56 = load i32, i32* %2, align 4
  %57 = sub nsw i32 %55, %56
  store i32 %57, i32* %6, align 4
  %58 = load i32, i32* %6, align 4
  %59 = sext i32 %58 to i64
  %60 = getelementptr inbounds [257 x i8], [257 x i8]* getelementptr inbounds ([3 x [257 x i8]], [3 x [257 x i8]]* @zfc, i64 1, i64 0), i64 0, i64 %59
  %61 = load i8, i8* %60, align 1
  %62 = load i32, i32* %3, align 4
  %63 = sext i32 %62 to i64
  %64 = getelementptr inbounds [257 x i8], [257 x i8]* getelementptr inbounds ([3 x [257 x i8]], [3 x [257 x i8]]* @zfc, i64 0, i64 1), i64 0, i64 %63
  store i8 %61, i8* %64, align 1
  %65 = load i32, i32* %3, align 4
  %66 = load i32, i32* %5, align 4
  %67 = load i32, i32* %2, align 4
  %68 = add nsw i32 %66, %67
  %69 = icmp eq i32 %65, %68
  br i1 %69, label %70, label %71

70:                                               ; preds = %54
  br label %75

71:                                               ; preds = %54
  br label %72

72:                                               ; preds = %71
  %73 = load i32, i32* %3, align 4
  %74 = add nsw i32 %73, 1
  store i32 %74, i32* %3, align 4
  br label %48

75:                                               ; preds = %70, %48
  br label %76

76:                                               ; preds = %75, %42
  %77 = call i32 (i8*, ...) @printf(i8* getelementptr inbounds ([3 x i8], [3 x i8]* @.str, i64 0, i64 0), i8* getelementptr inbounds ([3 x [257 x i8]], [3 x [257 x i8]]* @zfc, i64 0, i64 1, i64 0))
  ret i32 0
}

declare dso_local i32 @gets(...) #1

; Function Attrs: nounwind readonly
declare dso_local i64 @strlen(i8*) #2

declare dso_local i32 @printf(i8*, ...) #1


!llvm.module.flags = !{!0}
!llvm.ident = !{!1}

!0 = !{i32 1, !"wchar_size", i32 4}
!1 = !{!"clang version 10.0.0-4ubuntu1 "}
